target datalayout = "e-m:e-p270:32:32-p271:32:32-p272:64:64-i64:64-i128:128-f80:128-n8:16:32:64-S128"
target triple = "x86_64-pc-linux-gnu"

%struct.Qureg = type { i32, i32, i32, i64, i64, i32, i32, %struct.ComplexArray, %struct.ComplexArray, %struct.ComplexArray, ptr, ptr, ptr, ptr, ptr, ptr }
%struct.ComplexArray = type { ptr, ptr }
%struct.Complex = type { double, double }
%struct.DiagonalOp = type { i32, i64, i32, i32, ptr, ptr, %struct.ComplexArray }

@__func__.calcExpecDiagonalOp = private unnamed_addr constant [20 x i8] c"calcExpecDiagonalOp\00", align 1

; Function Attrs: nounwind uwtable
define { double, double } @calcExpecDiagonalOp(ptr noundef byval(%struct.Qureg) align 8 %0, ptr noundef byval(%struct.DiagonalOp) align 8 %1) #0 {
  %3 = alloca %struct.Complex, align 8
  call void @validateDiagonalOp(ptr noundef byval(%struct.Qureg) align 8 %0, ptr noundef byval(%struct.DiagonalOp) align 8 %1, ptr noundef @__func__.calcExpecDiagonalOp)
  %4 = getelementptr inbounds nuw %struct.Qureg, ptr %0, i32 0, i32 0
  %5 = load i32, ptr %4, align 8, !tbaa !13
  %6 = icmp ne i32 %5, 0
  br i1 %6, label %7, label %13

7:                                                ; preds = %2
  %8 = call { double, double } @densmatr_calcExpecDiagonalOp(ptr noundef byval(%struct.Qureg) align 8 %0, ptr noundef byval(%struct.DiagonalOp) align 8 %1)
  %9 = getelementptr inbounds nuw { double, double }, ptr %3, i32 0, i32 0
  %10 = extractvalue { double, double } %8, 0
  store double %10, ptr %9, align 8
  %11 = getelementptr inbounds nuw { double, double }, ptr %3, i32 0, i32 1
  %12 = extractvalue { double, double } %8, 1
  store double %12, ptr %11, align 8
  br label %19

13:                                               ; preds = %2
  %14 = call { double, double } @statevec_calcExpecDiagonalOp(ptr noundef byval(%struct.Qureg) align 8 %0, ptr noundef byval(%struct.DiagonalOp) align 8 %1)
  %15 = getelementptr inbounds nuw { double, double }, ptr %3, i32 0, i32 0
  %16 = extractvalue { double, double } %14, 0
  store double %16, ptr %15, align 8
  %17 = getelementptr inbounds nuw { double, double }, ptr %3, i32 0, i32 1
  %18 = extractvalue { double, double } %14, 1
  store double %18, ptr %17, align 8
  br label %19

19:                                               ; preds = %13, %7
  %20 = load { double, double }, ptr %3, align 8
  ret { double, double } %20
}