; Function Attrs: nounwind uwtable
define { double, double } @calcExpecDiagonalOp(ptr noundef readonly byval(%struct.Qureg) align 8 captures(none) %0, ptr noundef readonly byval(%struct.DiagonalOp) align 8 captures(none) %1) local_unnamed_addr #0 {
  tail call void @validateDiagonalOp(ptr noundef nonnull byval(%struct.Qureg) align 8 %0, ptr noundef nonnull byval(%struct.DiagonalOp) align 8 %1, ptr noundef nonnull @__func__.calcExpecDiagonalOp) #17
  %3 = load i32, ptr %0, align 8, !tbaa !12
  %.not = icmp eq i32 %3, 0
  br i1 %.not, label %6, label %4

4:                                                ; preds = %2
  %5 = tail call { double, double } @densmatr_calcExpecDiagonalOp(ptr noundef nonnull byval(%struct.Qureg) align 8 %0, ptr noundef nonnull byval(%struct.DiagonalOp) align 8 %1) #17
  br label %8

6:                                                ; preds = %2
  %7 = tail call { double, double } @statevec_calcExpecDiagonalOp(ptr noundef nonnull byval(%struct.Qureg) align 8 %0, ptr noundef nonnull byval(%struct.DiagonalOp) align 8 %1) #17
  br label %8

8:                                                ; preds = %6, %4
  %.pn = phi { double, double } [ %5, %4 ], [ %7, %6 ]
  ret { double, double } %.pn
}